target datalayout = "e-m:e-p270:32:32-p271:32:32-p272:64:64-i64:64-i128:128-f80:128-n8:16:32:64-S128"
target triple = "x86_64-pc-linux-gnu"

%struct._generic_N_Vector = type { ptr, ptr, ptr }
%struct._N_VectorContent_Serial = type { i64, i32, ptr }

; Function Attrs: nounwind uwtable
define internal i32 @f(double noundef %0, ptr noundef %1, ptr noundef %2, ptr noundef %3) #0 {
  %5 = alloca double, align 8
  %6 = alloca ptr, align 8
  %7 = alloca ptr, align 8
  %8 = alloca ptr, align 8
  %9 = alloca double, align 8
  %10 = alloca double, align 8
  %11 = alloca double, align 8
  %12 = alloca double, align 8
  %13 = alloca double, align 8
  store double %0, ptr %5, align 8, !tbaa !25
  store ptr %1, ptr %6, align 8, !tbaa !4
  store ptr %2, ptr %7, align 8, !tbaa !4
  store ptr %3, ptr %8, align 8, !tbaa !13
  call void @llvm.lifetime.start.p0(i64 8, ptr %9) #5
  call void @llvm.lifetime.start.p0(i64 8, ptr %10) #5
  call void @llvm.lifetime.start.p0(i64 8, ptr %11) #5
  call void @llvm.lifetime.start.p0(i64 8, ptr %12) #5
  call void @llvm.lifetime.start.p0(i64 8, ptr %13) #5
  %14 = load ptr, ptr %6, align 8, !tbaa !4
  %15 = getelementptr inbounds nuw %struct._generic_N_Vector, ptr %14, i32 0, i32 0
  %16 = load ptr, ptr %15, align 8, !tbaa !18
  %17 = getelementptr inbounds nuw %struct._N_VectorContent_Serial, ptr %16, i32 0, i32 2
  %18 = load ptr, ptr %17, align 8, !tbaa !21
  %19 = getelementptr inbounds double, ptr %18, i64 0
  %20 = load double, ptr %19, align 8, !tbaa !25
  store double %20, ptr %9, align 8, !tbaa !25
  %21 = load ptr, ptr %6, align 8, !tbaa !4
  %22 = getelementptr inbounds nuw %struct._generic_N_Vector, ptr %21, i32 0, i32 0
  %23 = load ptr, ptr %22, align 8, !tbaa !18
  %24 = getelementptr inbounds nuw %struct._N_VectorContent_Serial, ptr %23, i32 0, i32 2
  %25 = load ptr, ptr %24, align 8, !tbaa !21
  %26 = getelementptr inbounds double, ptr %25, i64 1
  %27 = load double, ptr %26, align 8, !tbaa !25
  store double %27, ptr %10, align 8, !tbaa !25
  %28 = load ptr, ptr %6, align 8, !tbaa !4
  %29 = getelementptr inbounds nuw %struct._generic_N_Vector, ptr %28, i32 0, i32 0
  %30 = load ptr, ptr %29, align 8, !tbaa !18
  %31 = getelementptr inbounds nuw %struct._N_VectorContent_Serial, ptr %30, i32 0, i32 2
  %32 = load ptr, ptr %31, align 8, !tbaa !21
  %33 = getelementptr inbounds double, ptr %32, i64 2
  %34 = load double, ptr %33, align 8, !tbaa !25
  store double %34, ptr %11, align 8, !tbaa !25
  %35 = load double, ptr %9, align 8, !tbaa !25
  %36 = load double, ptr %10, align 8, !tbaa !25
  %37 = fmul double 1.000000e+04, %36
  %38 = load double, ptr %11, align 8, !tbaa !25
  %39 = fmul double %37, %38
  %40 = call double @llvm.fmuladd.f64(double -4.000000e-02, double %35, double %39)
  %41 = load ptr, ptr %7, align 8, !tbaa !4
  %42 = getelementptr inbounds nuw %struct._generic_N_Vector, ptr %41, i32 0, i32 0
  %43 = load ptr, ptr %42, align 8, !tbaa !18
  %44 = getelementptr inbounds nuw %struct._N_VectorContent_Serial, ptr %43, i32 0, i32 2
  %45 = load ptr, ptr %44, align 8, !tbaa !21
  %46 = getelementptr inbounds double, ptr %45, i64 0
  store double %40, ptr %46, align 8, !tbaa !25
  store double %40, ptr %12, align 8, !tbaa !25
  %47 = load double, ptr %10, align 8, !tbaa !25
  %48 = fmul double 3.000000e+07, %47
  %49 = load double, ptr %10, align 8, !tbaa !25
  %50 = fmul double %48, %49
  %51 = load ptr, ptr %7, align 8, !tbaa !4
  %52 = getelementptr inbounds nuw %struct._generic_N_Vector, ptr %51, i32 0, i32 0
  %53 = load ptr, ptr %52, align 8, !tbaa !18
  %54 = getelementptr inbounds nuw %struct._N_VectorContent_Serial, ptr %53, i32 0, i32 2
  %55 = load ptr, ptr %54, align 8, !tbaa !21
  %56 = getelementptr inbounds double, ptr %55, i64 2
  store double %50, ptr %56, align 8, !tbaa !25
  store double %50, ptr %13, align 8, !tbaa !25
  %57 = load double, ptr %12, align 8, !tbaa !25
  %58 = fneg double %57
  %59 = load double, ptr %13, align 8, !tbaa !25
  %60 = fsub double %58, %59
  %61 = load ptr, ptr %7, align 8, !tbaa !4
  %62 = getelementptr inbounds nuw %struct._generic_N_Vector, ptr %61, i32 0, i32 0
  %63 = load ptr, ptr %62, align 8, !tbaa !18
  %64 = getelementptr inbounds nuw %struct._N_VectorContent_Serial, ptr %63, i32 0, i32 2
  %65 = load ptr, ptr %64, align 8, !tbaa !21
  %66 = getelementptr inbounds double, ptr %65, i64 1
  store double %60, ptr %66, align 8, !tbaa !25
  call void @llvm.lifetime.end.p0(i64 8, ptr %13) #5
  call void @llvm.lifetime.end.p0(i64 8, ptr %12) #5
  call void @llvm.lifetime.end.p0(i64 8, ptr %11) #5
  call void @llvm.lifetime.end.p0(i64 8, ptr %10) #5
  call void @llvm.lifetime.end.p0(i64 8, ptr %9) #5
  ret i32 0
}